; Function Attrs: mustprogress nofree norecurse nosync nounwind willreturn memory(argmem: readwrite) uwtable
define void @_ZN5draco13EncoderBuffer5ClearEv(ptr noundef nonnull align 8 captures(none) dereferenceable(41) initializes((32, 40)) %0) local_unnamed_addr #4 align 2 personality ptr @__gxx_personality_v0 {
  %2 = load ptr, ptr %0, align 8, !tbaa !3
  %3 = getelementptr inbounds nuw i8, ptr %0, i64 8
  %4 = load ptr, ptr %3, align 8, !tbaa !9
  %.not.i.i = icmp eq ptr %4, %2
  br i1 %.not.i.i, label %_ZNSt6vectorIcSaIcEE5clearEv.exit, label %5

5:                                                ; preds = %1
  store ptr %2, ptr %3, align 8, !tbaa !9
  br label %_ZNSt6vectorIcSaIcEE5clearEv.exit

_ZNSt6vectorIcSaIcEE5clearEv.exit:                ; preds = %1, %5
  %6 = getelementptr inbounds nuw i8, ptr %0, i64 32
  store i64 0, ptr %6, align 8, !tbaa !10
  ret void
}